target datalayout = "e-m:e-p270:32:32-p271:32:32-p272:64:64-i64:64-i128:128-f80:128-n8:16:32:64-S128"
target triple = "x86_64-pc-linux-gnu"

@.str = private unnamed_addr constant [33 x i8] c"\22%s\22 is not a valid byte string.\00", align 1

; Function Attrs: null_pointer_is_valid sspstrong uwtable
define hidden ptr @byte_array_from_literal(ptr noundef %0, ptr noundef %1) #0 {
  %3 = alloca ptr, align 8
  %4 = alloca ptr, align 8
  %5 = alloca ptr, align 8
  %6 = alloca ptr, align 8
  %7 = alloca i8, align 1
  %8 = alloca ptr, align 8
  %9 = alloca i64, align 8
  %10 = alloca i8, align 1
  %11 = alloca i32, align 4
  store ptr %0, ptr %4, align 8
  store ptr %1, ptr %5, align 8
  call void @llvm.lifetime.start.p0(i64 8, ptr %6) #9
  call void @llvm.lifetime.start.p0(i64 1, ptr %7) #9
  %12 = load ptr, ptr %4, align 8
  %13 = load i8, ptr %12, align 1
  %14 = sext i8 %13 to i32
  %15 = icmp eq i32 %14, 58
  br i1 %15, label %16, label %19

16:                                               ; preds = %2
  %17 = load ptr, ptr %4, align 8
  %18 = getelementptr i8, ptr %17, i32 1
  store ptr %18, ptr %4, align 8
  br label %19

19:                                               ; preds = %16, %2
  %20 = load ptr, ptr %4, align 8
  %21 = call i64 @strlen(ptr noundef %20) #11
  %22 = icmp eq i64 %21, 4
  br i1 %22, label %23, label %44

23:                                               ; preds = %19
  %24 = load ptr, ptr %4, align 8
  %25 = getelementptr i8, ptr %24, i64 0
  %26 = load i8, ptr %25, align 1
  %27 = sext i8 %26 to i32
  %28 = icmp eq i32 %27, 48
  br i1 %28, label %29, label %44

29:                                               ; preds = %23
  %30 = load ptr, ptr %4, align 8
  %31 = getelementptr i8, ptr %30, i64 1
  %32 = load i8, ptr %31, align 1
  %33 = sext i8 %32 to i32
  %34 = icmp eq i32 %33, 120
  br i1 %34, label %41, label %35

35:                                               ; preds = %29
  %36 = load ptr, ptr %4, align 8
  %37 = getelementptr i8, ptr %36, i64 1
  %38 = load i8, ptr %37, align 1
  %39 = sext i8 %38 to i32
  %40 = icmp eq i32 %39, 88
  br i1 %40, label %41, label %44

41:                                               ; preds = %35, %29
  %42 = load ptr, ptr %4, align 8
  %43 = getelementptr i8, ptr %42, i64 2
  store ptr %43, ptr %4, align 8
  br label %44

44:                                               ; preds = %41, %35, %23, %19
  %45 = call ptr @g_byte_array_new()
  store ptr %45, ptr %6, align 8
  %46 = load ptr, ptr %4, align 8
  %47 = call i64 @strlen(ptr noundef %46) #11
  %48 = icmp eq i64 %47, 10
  br i1 %48, label %49, label %108

49:                                               ; preds = %44
  %50 = load ptr, ptr %4, align 8
  %51 = getelementptr i8, ptr %50, i64 0
  %52 = load i8, ptr %51, align 1
  %53 = sext i8 %52 to i32
  %54 = icmp eq i32 %53, 48
  br i1 %54, label %55, label %108

55:                                               ; preds = %49
  %56 = load ptr, ptr %4, align 8
  %57 = getelementptr i8, ptr %56, i64 1
  %58 = load i8, ptr %57, align 1
  %59 = sext i8 %58 to i32
  %60 = icmp eq i32 %59, 98
  br i1 %60, label %67, label %61

61:                                               ; preds = %55
  %62 = load ptr, ptr %4, align 8
  %63 = getelementptr i8, ptr %62, i64 1
  %64 = load i8, ptr %63, align 1
  %65 = sext i8 %64 to i32
  %66 = icmp eq i32 %65, 66
  br i1 %66, label %67, label %108

67:                                               ; preds = %61, %55
  %68 = load ptr, ptr %4, align 8
  %69 = getelementptr i8, ptr %68, i64 2
  %70 = load i8, ptr %69, align 1
  %71 = sext i8 %70 to i32
  %72 = icmp eq i32 %71, 48
  br i1 %72, label %79, label %73

73:                                               ; preds = %67
  %74 = load ptr, ptr %4, align 8
  %75 = getelementptr i8, ptr %74, i64 2
  %76 = load i8, ptr %75, align 1
  %77 = sext i8 %76 to i32
  %78 = icmp eq i32 %77, 49
  br i1 %78, label %79, label %108

79:                                               ; preds = %73, %67
  %80 = call ptr @__errno_location() #12
  store i32 0, ptr %80, align 4
  call void @llvm.lifetime.start.p0(i64 8, ptr %8) #9
  call void @llvm.lifetime.start.p0(i64 8, ptr %9) #9
  %81 = load ptr, ptr %4, align 8
  %82 = getelementptr i8, ptr %81, i64 2
  %83 = call i64 @strtol(ptr noundef %82, ptr noundef %8, i32 noundef 2) #9
  store i64 %83, ptr %9, align 8
  %84 = call ptr @__errno_location() #12
  %85 = load i32, ptr %84, align 4
  %86 = icmp eq i32 %85, 0
  br i1 %86, label %87, label %104

87:                                               ; preds = %79
  %88 = load ptr, ptr %8, align 8
  %89 = load i8, ptr %88, align 1
  %90 = sext i8 %89 to i32
  %91 = icmp eq i32 %90, 0
  br i1 %91, label %92, label %104

92:                                               ; preds = %87
  %93 = load i64, ptr %9, align 8
  %94 = icmp sge i64 %93, 0
  br i1 %94, label %95, label %104

95:                                               ; preds = %92
  %96 = load i64, ptr %9, align 8
  %97 = icmp sle i64 %96, 255
  br i1 %97, label %98, label %104

98:                                               ; preds = %95
  call void @llvm.lifetime.start.p0(i64 1, ptr %10) #9
  %99 = load i64, ptr %9, align 8
  %100 = trunc i64 %99 to i8
  store i8 %100, ptr %10, align 1
  %101 = load ptr, ptr %6, align 8
  %102 = call ptr @g_byte_array_append(ptr noundef %101, ptr noundef %10, i32 noundef 1)
  %103 = load ptr, ptr %6, align 8
  store ptr %103, ptr %3, align 8
  store i32 1, ptr %11, align 4
  call void @llvm.lifetime.end.p0(i64 1, ptr %10) #9
  br label %105

104:                                              ; preds = %95, %92, %87, %79
  store i32 0, ptr %11, align 4
  br label %105

105:                                              ; preds = %104, %98
  call void @llvm.lifetime.end.p0(i64 8, ptr %9) #9
  call void @llvm.lifetime.end.p0(i64 8, ptr %8) #9
  %106 = load i32, ptr %11, align 4
  switch i32 %106, label %127 [
    i32 0, label %107
  ]

107:                                              ; preds = %105
  br label %108

108:                                              ; preds = %107, %73, %61, %49, %44
  %109 = load ptr, ptr %4, align 8
  %110 = load ptr, ptr %6, align 8
  %111 = call zeroext i1 @hex_str_to_bytes(ptr noundef %109, ptr noundef %110, i1 noundef zeroext false)
  %112 = zext i1 %111 to i8
  store i8 %112, ptr %7, align 1
  %113 = load i8, ptr %7, align 1, !range !6, !noundef !7
  %114 = trunc i8 %113 to i1
  br i1 %114, label %125, label %115

115:                                              ; preds = %108
  %116 = load ptr, ptr %5, align 8
  %117 = icmp ne ptr %116, null
  br i1 %117, label %118, label %122

118:                                              ; preds = %115
  %119 = load ptr, ptr %4, align 8
  %120 = call noalias ptr (ptr, ptr, ...) @wmem_strdup_printf(ptr noundef null, ptr noundef @.str, ptr noundef %119)
  %121 = load ptr, ptr %5, align 8
  store ptr %120, ptr %121, align 8
  br label %122

122:                                              ; preds = %118, %115
  %123 = load ptr, ptr %6, align 8
  %124 = call ptr @g_byte_array_free(ptr noundef %123, i32 noundef 1)
  store ptr null, ptr %3, align 8
  store i32 1, ptr %11, align 4
  br label %127

125:                                              ; preds = %108
  %126 = load ptr, ptr %6, align 8
  store ptr %126, ptr %3, align 8
  store i32 1, ptr %11, align 4
  br label %127

127:                                              ; preds = %125, %122, %105
  call void @llvm.lifetime.end.p0(i64 1, ptr %7) #9
  call void @llvm.lifetime.end.p0(i64 8, ptr %6) #9
  %128 = load ptr, ptr %3, align 8
  ret ptr %128
}