; Function Attrs: null_pointer_is_valid sspstrong uwtable
define hidden ptr @byte_array_from_literal(ptr noundef %0, ptr noundef writeonly captures(address_is_null) %1) local_unnamed_addr #0 {
  %3 = alloca ptr, align 8
  %4 = alloca i8, align 1
  %5 = load i8, ptr %0, align 1
  %6 = icmp eq i8 %5, 58
  %spec.select.idx = zext i1 %6 to i64
  %spec.select = getelementptr i8, ptr %0, i64 %spec.select.idx
  %7 = tail call i64 @strlen(ptr noundef %spec.select) #10
  %8 = icmp eq i64 %7, 4
  br i1 %8, label %9, label %17

9:                                                ; preds = %2
  %10 = load i8, ptr %spec.select, align 1
  %11 = icmp eq i8 %10, 48
  br i1 %11, label %12, label %17

12:                                               ; preds = %9
  %13 = getelementptr i8, ptr %spec.select, i64 1
  %14 = load i8, ptr %13, align 1
  switch i8 %14, label %17 [
    i8 120, label %15
    i8 88, label %15
  ]

15:                                               ; preds = %12, %12
  %16 = getelementptr i8, ptr %spec.select, i64 2
  br label %17

17:                                               ; preds = %12, %15, %9, %2
  %.133 = phi ptr [ %16, %15 ], [ %spec.select, %9 ], [ %spec.select, %2 ], [ %spec.select, %12 ]
  %18 = tail call ptr @g_byte_array_new()
  %19 = tail call i64 @strlen(ptr noundef %.133) #10
  %20 = icmp eq i64 %19, 10
  br i1 %20, label %21, label %44

21:                                               ; preds = %17
  %22 = load i8, ptr %.133, align 1
  %23 = icmp eq i8 %22, 48
  br i1 %23, label %24, label %44

24:                                               ; preds = %21
  %25 = getelementptr i8, ptr %.133, i64 1
  %26 = load i8, ptr %25, align 1
  switch i8 %26, label %44 [
    i8 98, label %27
    i8 66, label %27
  ]

27:                                               ; preds = %24, %24
  %28 = getelementptr i8, ptr %.133, i64 2
  %29 = load i8, ptr %28, align 1
  %30 = and i8 %29, -2
  %switch = icmp eq i8 %30, 48
  br i1 %switch, label %31, label %44

31:                                               ; preds = %27
  %32 = tail call ptr @__errno_location() #11
  store i32 0, ptr %32, align 4
  call void @llvm.lifetime.start.p0(i64 8, ptr nonnull %3) #12
  %33 = call i64 @strtol(ptr noundef %28, ptr noundef nonnull %3, i32 noundef 2) #12
  %34 = load i32, ptr %32, align 4
  %35 = icmp eq i32 %34, 0
  br i1 %35, label %36, label %.thread

36:                                               ; preds = %31
  %37 = load ptr, ptr %3, align 8
  %38 = load i8, ptr %37, align 1
  %39 = icmp eq i8 %38, 0
  %40 = icmp ult i64 %33, 256
  %or.cond3 = select i1 %39, i1 %40, i1 false
  br i1 %or.cond3, label %41, label %.thread

.thread:                                          ; preds = %36, %31
  call void @llvm.lifetime.end.p0(i64 8, ptr nonnull %3) #12
  br label %44

41:                                               ; preds = %36
  call void @llvm.lifetime.start.p0(i64 1, ptr nonnull %4) #12
  %42 = trunc nuw i64 %33 to i8
  store i8 %42, ptr %4, align 1
  %43 = call ptr @g_byte_array_append(ptr noundef %18, ptr noundef nonnull %4, i32 noundef 1)
  call void @llvm.lifetime.end.p0(i64 1, ptr nonnull %4) #12
  call void @llvm.lifetime.end.p0(i64 8, ptr nonnull %3) #12
  br label %51

44:                                               ; preds = %.thread, %27, %24, %21, %17
  %45 = tail call zeroext i1 @hex_str_to_bytes(ptr noundef %.133, ptr noundef %18, i1 noundef zeroext false)
  br i1 %45, label %51, label %46

46:                                               ; preds = %44
  %.not = icmp eq ptr %1, null
  br i1 %.not, label %49, label %47

47:                                               ; preds = %46
  %48 = tail call noalias ptr (ptr, ptr, ...) @wmem_strdup_printf(ptr noundef null, ptr noundef nonnull @.str, ptr noundef %.133)
  store ptr %48, ptr %1, align 8
  br label %49

49:                                               ; preds = %47, %46
  %50 = tail call ptr @g_byte_array_free(ptr noundef %18, i32 noundef 1)
  br label %51

51:                                               ; preds = %41, %44, %49
  %.1 = phi ptr [ null, %49 ], [ %18, %41 ], [ %18, %44 ]
  ret ptr %.1
}